; Function Attrs: mustprogress nounwind uwtable
define dso_local void @_ZN4llvm21ValueProfileCollectorC2ERNS_8FunctionERNS_17TargetLibraryInfoE(ptr nocapture noundef nonnull writeonly align 8 dereferenceable(8) %0, ptr noundef nonnull align 8 dereferenceable(136) %1, ptr noundef nonnull align 8 dereferenceable(72) %2) unnamed_addr #0 align 2 {
  %4 = tail call noalias noundef nonnull dereferenceable(40) ptr @_Znwm(i64 noundef 40) #8
  store ptr %1, ptr %4, align 8
  %5 = getelementptr inbounds nuw i8, ptr %4, i64 8
  store ptr %1, ptr %5, align 8
  %6 = getelementptr inbounds nuw i8, ptr %4, i64 16
  store ptr %1, ptr %6, align 8
  %7 = getelementptr inbounds i8, ptr %4, i64 24
  store ptr %2, ptr %7, align 8
  %8 = getelementptr inbounds i8, ptr %4, i64 32
  store ptr null, ptr %8, align 8
  store ptr %4, ptr %0, align 8
  ret void
}